; Function Attrs: nounwind uwtable
define ptr @l_Lake_PConfigDecl_config_x3f___rarg___boxed(ptr noundef %0, ptr noundef %1) #0 {
  %3 = getelementptr inbounds nuw i8, ptr %1, i64 24
  %4 = load ptr, ptr %3, align 8, !tbaa !4
  %5 = tail call zeroext i8 @lean_name_eq(ptr noundef %4, ptr noundef %0) #5
  %6 = icmp eq i8 %5, 0
  br i1 %6, label %l_Lake_PConfigDecl_config_x3f___rarg.exit, label %7

7:                                                ; preds = %2
  %8 = getelementptr inbounds nuw i8, ptr %1, i64 32
  %9 = load ptr, ptr %8, align 8, !tbaa !4
  %10 = ptrtoint ptr %9 to i64
  %11 = and i64 %10, 1
  %.not.i8 = icmp eq i64 %11, 0
  br i1 %.not.i8, label %12, label %lean_inc.exit.i

12:                                               ; preds = %7
  %.val.i.i = load i32, ptr %9, align 4, !tbaa !8
  %13 = icmp sgt i32 %.val.i.i, 0
  br i1 %13, label %14, label %16, !prof !11

14:                                               ; preds = %12
  %15 = add nuw i32 %.val.i.i, 1
  store i32 %15, ptr %9, align 4, !tbaa !8
  br label %lean_inc.exit.i

16:                                               ; preds = %12
  %.not.i.i = icmp eq i32 %.val.i.i, 0
  br i1 %.not.i.i, label %lean_inc.exit.i, label %17

17:                                               ; preds = %16
  tail call void @lean_inc_ref_cold(ptr noundef nonnull %9) #5
  br label %lean_inc.exit.i

lean_inc.exit.i:                                  ; preds = %17, %16, %14, %7
  tail call void @lean_inc_heartbeat() #5
  %18 = tail call noalias ptr @mi_malloc_small(i64 noundef 16) #5
  %19 = icmp eq ptr %18, null
  br i1 %19, label %20, label %lean_alloc_ctor.exit.i

20:                                               ; preds = %lean_inc.exit.i
  tail call void @lean_internal_panic_out_of_memory() #6
  unreachable

lean_alloc_ctor.exit.i:                           ; preds = %lean_inc.exit.i
  %21 = getelementptr inbounds nuw i8, ptr %18, i64 4
  store i32 1, ptr %18, align 4, !tbaa !8
  store i32 16842768, ptr %21, align 4
  %22 = getelementptr inbounds nuw i8, ptr %18, i64 8
  store ptr %9, ptr %22, align 8, !tbaa !4
  br label %l_Lake_PConfigDecl_config_x3f___rarg.exit

l_Lake_PConfigDecl_config_x3f___rarg.exit:        ; preds = %2, %lean_alloc_ctor.exit.i
  %.0.i = phi ptr [ %18, %lean_alloc_ctor.exit.i ], [ inttoptr (i64 1 to ptr), %2 ]
  %23 = ptrtoint ptr %1 to i64
  %24 = and i64 %23, 1
  %.not = icmp eq i64 %24, 0
  br i1 %.not, label %25, label %lean_dec.exit5

25:                                               ; preds = %l_Lake_PConfigDecl_config_x3f___rarg.exit
  %26 = load i32, ptr %1, align 4, !tbaa !8
  %27 = icmp sgt i32 %26, 1
  br i1 %27, label %28, label %30, !prof !11

28:                                               ; preds = %25
  %29 = add nsw i32 %26, -1
  store i32 %29, ptr %1, align 4, !tbaa !8
  br label %lean_dec.exit5

30:                                               ; preds = %25
  %.not.i = icmp eq i32 %26, 0
  br i1 %.not.i, label %lean_dec.exit5, label %31

31:                                               ; preds = %30
  tail call void @lean_dec_ref_cold(ptr noundef nonnull %1) #5
  br label %lean_dec.exit5

lean_dec.exit5:                                   ; preds = %31, %30, %28, %l_Lake_PConfigDecl_config_x3f___rarg.exit
  %32 = ptrtoint ptr %0 to i64
  %33 = and i64 %32, 1
  %.not9 = icmp eq i64 %33, 0
  br i1 %.not9, label %34, label %lean_dec.exit

34:                                               ; preds = %lean_dec.exit5
  %35 = load i32, ptr %0, align 4, !tbaa !8
  %36 = icmp sgt i32 %35, 1
  br i1 %36, label %37, label %39, !prof !11

37:                                               ; preds = %34
  %38 = add nsw i32 %35, -1
  store i32 %38, ptr %0, align 4, !tbaa !8
  br label %lean_dec.exit

39:                                               ; preds = %34
  %.not.i6 = icmp eq i32 %35, 0
  br i1 %.not.i6, label %lean_dec.exit, label %40

40:                                               ; preds = %39
  tail call void @lean_dec_ref_cold(ptr noundef nonnull %0) #5
  br label %lean_dec.exit

lean_dec.exit:                                    ; preds = %40, %39, %37, %lean_dec.exit5
  ret ptr %.0.i
}